(dp0
S'Ru'
p1
F101.07
sS'Ni'
p2
F58.69
sS'Na'
p3
F22.99
sS'Nb'
p4
F92.91
sS'Nd'
p5
F144.24
sS'Ne'
p6
F20.18
sS'Re'
p7
F186.21
sS'Rf'
p8
F261.0
sS'Ra'
p9
F226.0
sS'Rb'
p10
F85.47
sS'Np'
p11
F237.0
sS'Rn'
p12
F222.0
sS'Rh'
p13
F102.91
sS'Be'
p14
F9.01
sS'Fr'
p15
F223.0
sS'Ba'
p16
F137.33
sS'Sg'
p17
F266.0
sS'No'
p18
F259.0
sS'Bh'
p19
F264.0
sS'Bi'
p20
F208.98
sS'Bk'
p21
F247.0
sS'Fe'
p22
F55.85
sS'Br'
p23
F79.9
sS'Fm'
p24
F257.0
sS'B'
p25
F10.81
sS'F'
p26
F19.0
sS'H'
p27
F1.01
sS'Dy'
p28
F162.5
sS'Lu'
p29
F174.97
sS'Ac'
p30
F227.0
sS'N'
p31
F14.01
sS'P'
p32
F30.97
sS'Si'
p33
F28.09
sS'Sn'
p34
F118.71
sS'Sm'
p35
F150.36
sS'V'
p36
F50.94
sS'Sc'
p37
F44.96
sS'Sb'
p38
F121.76
sS'Os'
p39
F190.23
sS'Se'
p40
F78.96
sS'Co'
p41
F58.93
sS'Cm'
p42
F247.0
sS'Cl'
p43
F35.45
sS'Ca'
p44
F40.08
sS'Cf'
p45
F251.0
sS'Ce'
p46
F140.12
sS'Cd'
p47
F112.41
sS'Ge'
p48
F72.61
sS'Gd'
p49
F157.25
sS'Ga'
p50
F69.72
sS'Cs'
p51
F132.91
sS'Cr'
p52
F52.0
sS'At'
p53
F210.0
sS'Cu'
p54
F63.55
sS'Pr'
p55
F140.91
sS'Th'
p56
F232.04
sS'Pt'
p57
F195.08
sS'Pu'
p58
F244.0
sS'Mg'
p59
F24.31
sS'Li'
p60
F6.94
sS'Pb'
p61
F207.2
sS'Tl'
p62
F204.38
sS'Pa'
p63
F231.04
sS'Lr'
p64
F262.0
sS'Pd'
p65
F106.42
sS'Ti'
p66
F47.87
sS'Xe'
p67
F131.29
sS'Tb'
p68
F158.93
sS'Po'
p69
F209.0
sS'Pm'
p70
F145.0
sS'Te'
p71
F127.6
sS'Hs'
p72
F269.0
sS'Yb'
p73
F173.04
sS'Db'
p74
F262.0
sS'Eu'
p75
F151.96
sS'Tc'
p76
F98.0
sS'Ho'
p77
F164.93
sS'Sr'
p78
F87.62
sS'Ta'
p79
F180.95
sS'Hf'
p80
F178.49
sS'Hg'
p81
F200.59
sS'He'
p82
F4.0
sS'Md'
p83
F258.0
sS'C'
p84
F12.01
sS'I'
p85
F126.9
sS'K'
p86
F39.1
sS'Mn'
p87
F54.94
sS'O'
p88
F16.0
sS'Mt'
p89
F268.0
sS'S'
p90
F32.07
sS'U'
p91
F238.03
sS'W'
p92
F183.84
sS'Y'
p93
F88.91
sS'Zn'
p94
F65.39
sS'La'
p95
F138.91
sS'Ag'
p96
F107.87
sS'Kr'
p97
F83.8
sS'Ir'
p98
F192.22
sS'Am'
p99
F243.0
sS'Al'
p100
F26.98
sS'As'
p101
F74.92
sS'Ar'
p102
F39.95
sS'Au'
p103
F196.97
sS'Zr'
p104
F91.22
sS'In'
p105
F114.82
sS'Mo'
p106
F95.94
sS'Tm'
p107
F168.93
sS'Es'
p108
F252.0
sS'Er'
p109
F167.26
s.