(dp0
I1
S'H'
p1
sI4
S'He'
p2
sI6
S'Li'
p3
sI9
S'Be'
p4
sI10
S'B'
p5
sI12
S'C'
p6
sI14
S'N'
p7
sI16
S'O'
p8
sI19
S'F'
p9
sI20
S'Ne'
p10
sI22
S'Na'
p11
sI24
S'Mg'
p12
sI26
S'Al'
p13
sI28
S'Si'
p14
sI30
S'P'
p15
sI32
S'S'
p16
sI35
S'Cl'
p17
sI39
S'Ar'
p18
sI40
S'Ca'
p19
sI44
S'Sc'
p20
sI47
S'Ti'
p21
sI50
S'V'
p22
sI52
S'Cr'
p23
sI54
S'Mn'
p24
sI55
S'Fe'
p25
sI58
S'Co'
p26
sI63
S'Cu'
p27
sI65
S'Zn'
p28
sI69
S'Ga'
p29
sI72
S'Ge'
p30
sI74
S'As'
p31
sI78
S'Se'
p32
sI79
S'Br'
p33
sI83
S'Kr'
p34
sI85
S'Rb'
p35
sI87
S'Sr'
p36
sI88
S'Y'
p37
sI91
S'Zr'
p38
sI92
S'Nb'
p39
sI95
S'Mo'
p40
sI98
S'Tc'
p41
sI101
S'Ru'
p42
sI102
S'Rh'
p43
sI106
S'Pd'
p44
sI107
S'Ag'
p45
sI112
S'Cd'
p46
sI114
S'In'
p47
sI118
S'Sn'
p48
sI121
S'Sb'
p49
sI126
S'I'
p50
sI127
S'Te'
p51
sI131
S'Xe'
p52
sI132
S'Cs'
p53
sI137
S'Ba'
p54
sI138
S'La'
p55
sI140
S'Pr'
p56
sI144
S'Nd'
p57
sI145
S'Pm'
p58
sI150
S'Sm'
p59
sI151
S'Eu'
p60
sI157
S'Gd'
p61
sI158
S'Tb'
p62
sI162
S'Dy'
p63
sI164
S'Ho'
p64
sI167
S'Er'
p65
sI168
S'Tm'
p66
sI173
S'Yb'
p67
sI174
S'Lu'
p68
sI178
S'Hf'
p69
sI180
S'Ta'
p70
sI183
S'W'
p71
sI186
S'Re'
p72
sI190
S'Os'
p73
sI192
S'Ir'
p74
sI195
S'Pt'
p75
sI196
S'Au'
p76
sI200
S'Hg'
p77
sI204
S'Tl'
p78
sI207
S'Pb'
p79
sI208
S'Bi'
p80
sI209
S'Po'
p81
sI210
S'At'
p82
sI222
S'Rn'
p83
sI223
S'Fr'
p84
sI226
S'Ra'
p85
sI227
S'Ac'
p86
sI231
S'Pa'
p87
sI232
S'Th'
p88
sI237
S'Np'
p89
sI238
S'U'
p90
sI243
S'Am'
p91
sI244
S'Pu'
p92
sI247
S'Cm'
p93
sI251
S'Cf'
p94
sI252
S'Es'
p95
sI257
S'Fm'
p96
sI258
S'Md'
p97
sI259
S'No'
p98
sI261
S'Rf'
p99
sI262
S'Db'
p100
sI264
S'Bh'
p101
sI266
S'Sg'
p102
sI268
S'Mt'
p103
sI269
S'Hs'
p104
s.