(dp0
S'mccoy'
p1
S'species\nSr core 2\nO core -2\nTi core 4\nbuckingham\nSr core O core 682.172 0.39450 0 0.0 20.0 \nTi core O core 2179.122 0.30384 8.986 0.0 20.0\nO core O core 9547.960 0.21916 32.00 0.0 20.0\n'
p2
sS'thomas'
p3
S'species\nSr core  1.84\nO  core -1.4\nTi core  2.36\nbuckingham\nSr core O core 1769.51 0.319894 0 0.0 12.0 \nTi core O core 14567.4 0.197584 0 1.0 12.0\nO core O core 6249.17 0.231472 0 0.0 12.0'
p4
s.